c__builtin__
set
p0
((lp1
Vall
p2
aVshe'll
p3
aVdon't
p4
aVbeing
p5
aVwhen
p6
aVover
p7
aVisnt
p8
aVthrough
p9
aVyourselves
p10
aVits
p11
aVbefore
p12
aV$
p13
aVhe's
p14
aVwhen's
p15
aV(
p16
aVhad
p17
aV,
p18
aVshould
p19
aVhe'd
p20
aVto
p21
aVonly
p22
aVthere's
p23
aVthose
p24
aVunder
p25
aVhas
p26
aV<
p27
aVhaven't
p28
aV@
p29
aVthem
p30
aVhis
p31
aVreturn
p32
aVthey'll
p33
aVvery
p34
aVwho's
p35
aVthey'd
p36
aVcannot
p37
aVyou've
p38
aVthey
p39
aVwerent
p40
aVnot
p41
aVduring
p42
aVyourself
p43
aVhim
p44
aVnor
p45
aVwont
p46
aV`
p47
aVwe'll
p48
aVdid
p49
aVi'm
p50
aVthey've
p51
aVshant
p52
aVtheyre
p53
aVthis
p54
aV-lsb-
p55
aVshe
p56
aVeach
p57
aVwon't
p58
aVhavent
p59
aVwhere
p60
aVmustn't
p61
aVisn't
p62
aVi'll
p63
aVwhy's
p64
aVbecause
p65
aVyou'd
p66
aVdoing
p67
aVthere
p68
aVsome
p69
aVwhys
p70
aVwhens
p71
aVup
p72
aVare
p73
aVcant
p74
aVfurther
p75
aV-rsb-
p76
aVourselves
p77
aVout
p78
aV#
p79
aV'
p80
aVheres
p81
aV+
p82
aV###
p83
aVwhile
p84
aVwasn't
p85
aVdoes
p86
aVshouldn't
p87
aVabove
p88
aVbetween
p89
aV;
p90
aVyoull
p91
aV?
p92
aVought
p93
aVbe
p94
aVwe
p95
aVwho
p96
aVdo
p97
aVyou're
p98
aVwere
p99
aVhere
p100
aVdidnt
p101
aVhadn't
p102
aV[
p103
aVaren't
p104
aVby
p105
aVboth
p106
aVabout
p107
aVher
p108
aVwouldnt
p109
aVof
p110
aVcould
p111
aVhes
p112
aVagainst
p113
aVi'd
p114
aVweren't
p115
aVwe've
p116
aV{
p117
aVtheres
p118
aVor
p119
aVcan't
p120
aVthats
p121
aV!!
p122
aVown
p123
aVwhats
p124
aVdont
p125
aVinto
p126
aVyoud
p127
aVwhom
p128
aVdown
p129
aVhers
p130
aVdoesnt
p131
aVcouldn't
p132
aVsuch
p133
aVyouv
p134
aVcouldnt
p135
aVwhos
p136
aVyour
p137
aV!?
p138
aVdoesn't
p139
aVhe
p140
aV"
p141
aVfrom
p142
aVhow's
p143
aV..
p144
aV&
p145
aVit's
p146
aV*
p147
aVlets
p148
aVbeen
p149
aV.
p150
aVfew
p151
aVtoo
p152
aVthen
p153
aVthemselves
p154
aV:
p155
aVwas
p156
aVuntil
p157
aV>
p158
aV``
p159
aVhimself
p160
aVwhere's
p161
aVi've
p162
aVwith
p163
aVdidn't
p164
aVwhat's
p165
aVtheyll
p166
aVbut
p167
aV...
p168
aVhadnt
p169
aV-lrb-
p170
aVmustnt
p171
aVherself
p172
aVthan
p173
aVhere's
p174
aV^
p175
aVme
p176
aVthey're
p177
aVmyself
p178
aVtheyve
p179
aVthese
p180
aVhasn't
p181
aVshes
p182
aVbelow
p183
aVcan
p184
aVtheirs
p185
aVmore
p186
aVmy
p187
aVwouldn't
p188
aVwe'd
p189
aVand
p190
aVwould
p191
aV-rrb-
p192
aVwasnt
p193
aVis
p194
aVam
p195
aVit
p196
aVan
p197
aV''
p198
aVas
p199
aVitself
p200
aVim
p201
aVat
p202
aVhave
p203
aVin
p204
aVany
p205
aVif
p206
aV!
p207
aVagain
p208
aVhasnt
p209
aV%
p210
aVno
p211
aV)
p212
aVthat
p213
aV-
p214
aVsame
p215
aVhow
p216
aVother
p217
aVwhich
p218
aVwheres
p219
aVyou
p220
aVshan't
p221
aVarent
p222
aV??
p223
aVshouldnt
p224
aV's
p225
aVour
p226
aVwhy
p227
aVafter
p228
aVwhat
p229
aVlet's
p230
aVmost
p231
aVours 
p232
aV'll
p233
aV'm
p234
aVon
p235
aV]
p236
aVhe'll
p237
aV?!
p238
aVa
p239
aVhows
p240
aVoff
p241
aVfor
p242
aVi
p243
aVyoure
p244
aVshe'd
p245
aVyours
p246
aVtheir
p247
aVyou'll
p248
aVso
p249
aVwe're
p250
aVshe's
p251
aVthe
p252
aVthat's
p253
aV}
p254
aVhaving
p255
aVonce
p256
atp257
Rp258
.